target datalayout = "e-m:e-p270:32:32-p271:32:32-p272:64:64-i64:64-i128:128-f80:128-n8:16:32:64-S128"
target triple = "x86_64-pc-linux-gnu"

@c_ident_prefix = internal global ptr @.str.57, align 8

; Function Attrs: nounwind uwtable
define internal void @get_c_name(ptr noundef %0, i64 noundef %1, ptr noundef %2) #0 {
  %4 = alloca ptr, align 8
  %5 = alloca i64, align 8
  %6 = alloca ptr, align 8
  %7 = alloca ptr, align 8
  %8 = alloca ptr, align 8
  %9 = alloca i64, align 8
  %10 = alloca i64, align 8
  %11 = alloca i32, align 4
  %12 = alloca ptr, align 8
  store ptr %0, ptr %4, align 8
  store i64 %1, ptr %5, align 8
  store ptr %2, ptr %6, align 8
  %13 = load ptr, ptr %6, align 8
  %14 = call ptr @strrchr(ptr noundef %13, i32 noundef 47) #10
  store ptr %14, ptr %7, align 8
  %15 = load ptr, ptr %7, align 8
  %16 = icmp ne ptr %15, null
  br i1 %16, label %19, label %17

17:                                               ; preds = %3
  %18 = load ptr, ptr %6, align 8
  store ptr %18, ptr %7, align 8
  br label %22

19:                                               ; preds = %3
  %20 = load ptr, ptr %7, align 8
  %21 = getelementptr i8, ptr %20, i32 1
  store ptr %21, ptr %7, align 8
  br label %22

22:                                               ; preds = %19, %17
  %23 = load ptr, ptr %7, align 8
  %24 = call ptr @strrchr(ptr noundef %23, i32 noundef 46) #10
  store ptr %24, ptr %8, align 8
  %25 = load ptr, ptr %8, align 8
  %26 = icmp ne ptr %25, null
  br i1 %26, label %30, label %27

27:                                               ; preds = %22
  %28 = load ptr, ptr %7, align 8
  %29 = call i64 @strlen(ptr noundef %28) #10
  store i64 %29, ptr %9, align 8
  br label %36

30:                                               ; preds = %22
  %31 = load ptr, ptr %8, align 8
  %32 = load ptr, ptr %7, align 8
  %33 = ptrtoint ptr %31 to i64
  %34 = ptrtoint ptr %32 to i64
  %35 = sub i64 %33, %34
  store i64 %35, ptr %9, align 8
  br label %36

36:                                               ; preds = %30, %27
  %37 = load ptr, ptr %4, align 8
  %38 = load i64, ptr %5, align 8
  %39 = trunc i64 %38 to i32
  %40 = load ptr, ptr @c_ident_prefix, align 8
  call void @pstrcpy(ptr noundef %37, i32 noundef %39, ptr noundef %40)
  %41 = load ptr, ptr %4, align 8
  %42 = load ptr, ptr %4, align 8
  %43 = call i64 @strlen(ptr noundef %42) #10
  %44 = getelementptr i8, ptr %41, i64 %43
  store ptr %44, ptr %12, align 8
  store i64 0, ptr %10, align 8
  br label %45

45:                                               ; preds = %88, %36
  %46 = load i64, ptr %10, align 8
  %47 = load i64, ptr %9, align 8
  %48 = icmp ult i64 %46, %47
  br i1 %48, label %49, label %91

49:                                               ; preds = %45
  %50 = load ptr, ptr %7, align 8
  %51 = load i64, ptr %10, align 8
  %52 = getelementptr i8, ptr %50, i64 %51
  %53 = load i8, ptr %52, align 1
  %54 = zext i8 %53 to i32
  store i32 %54, ptr %11, align 4
  %55 = load i32, ptr %11, align 4
  %56 = icmp sge i32 %55, 48
  br i1 %56, label %57, label %60

57:                                               ; preds = %49
  %58 = load i32, ptr %11, align 4
  %59 = icmp sle i32 %58, 57
  br i1 %59, label %73, label %60

60:                                               ; preds = %57, %49
  %61 = load i32, ptr %11, align 4
  %62 = icmp sge i32 %61, 65
  br i1 %62, label %63, label %66

63:                                               ; preds = %60
  %64 = load i32, ptr %11, align 4
  %65 = icmp sle i32 %64, 90
  br i1 %65, label %73, label %66

66:                                               ; preds = %63, %60
  %67 = load i32, ptr %11, align 4
  %68 = icmp sge i32 %67, 97
  br i1 %68, label %69, label %72

69:                                               ; preds = %66
  %70 = load i32, ptr %11, align 4
  %71 = icmp sle i32 %70, 122
  br i1 %71, label %73, label %72

72:                                               ; preds = %69, %66
  store i32 95, ptr %11, align 4
  br label %73

73:                                               ; preds = %72, %69, %63, %57
  %74 = load ptr, ptr %12, align 8
  %75 = load ptr, ptr %4, align 8
  %76 = ptrtoint ptr %74 to i64
  %77 = ptrtoint ptr %75 to i64
  %78 = sub i64 %76, %77
  %79 = load i64, ptr %5, align 8
  %80 = sub i64 %79, 1
  %81 = icmp ult i64 %78, %80
  br i1 %81, label %82, label %87

82:                                               ; preds = %73
  %83 = load i32, ptr %11, align 4
  %84 = trunc i32 %83 to i8
  %85 = load ptr, ptr %12, align 8
  %86 = getelementptr i8, ptr %85, i32 1
  store ptr %86, ptr %12, align 8
  store i8 %84, ptr %85, align 1
  br label %87

87:                                               ; preds = %82, %73
  br label %88

88:                                               ; preds = %87
  %89 = load i64, ptr %10, align 8
  %90 = add i64 %89, 1
  store i64 %90, ptr %10, align 8
  br label %45, !llvm.loop !10

91:                                               ; preds = %45
  %92 = load ptr, ptr %12, align 8
  store i8 0, ptr %92, align 1
  ret void
}